target datalayout = "e-m:e-p270:32:32-p271:32:32-p272:64:64-i64:64-i128:128-f80:128-n8:16:32:64-S128"
target triple = "x86_64-pc-linux-gnu"

%struct.SUNMemoryHelper_ = type { ptr, ptr, ptr }
%struct.SUNMemoryHelper_Ops_ = type { ptr, ptr, ptr, ptr, ptr, ptr, ptr }

; Function Attrs: nounwind uwtable
define i32 @SUNMemoryHelper_ImplementsRequiredOps(ptr noundef %0) #0 {
  %2 = alloca i32, align 4
  %3 = alloca ptr, align 8
  store ptr %0, ptr %3, align 8, !tbaa !14
  %4 = load ptr, ptr %3, align 8, !tbaa !14
  %5 = getelementptr inbounds nuw %struct.SUNMemoryHelper_, ptr %4, i32 0, i32 1
  %6 = load ptr, ptr %5, align 8, !tbaa !16
  %7 = getelementptr inbounds nuw %struct.SUNMemoryHelper_Ops_, ptr %6, i32 0, i32 0
  %8 = load ptr, ptr %7, align 8, !tbaa !21
  %9 = icmp eq ptr %8, null
  br i1 %9, label %24, label %10

10:                                               ; preds = %1
  %11 = load ptr, ptr %3, align 8, !tbaa !14
  %12 = getelementptr inbounds nuw %struct.SUNMemoryHelper_, ptr %11, i32 0, i32 1
  %13 = load ptr, ptr %12, align 8, !tbaa !16
  %14 = getelementptr inbounds nuw %struct.SUNMemoryHelper_Ops_, ptr %13, i32 0, i32 1
  %15 = load ptr, ptr %14, align 8, !tbaa !23
  %16 = icmp eq ptr %15, null
  br i1 %16, label %24, label %17

17:                                               ; preds = %10
  %18 = load ptr, ptr %3, align 8, !tbaa !14
  %19 = getelementptr inbounds nuw %struct.SUNMemoryHelper_, ptr %18, i32 0, i32 1
  %20 = load ptr, ptr %19, align 8, !tbaa !16
  %21 = getelementptr inbounds nuw %struct.SUNMemoryHelper_Ops_, ptr %20, i32 0, i32 2
  %22 = load ptr, ptr %21, align 8, !tbaa !24
  %23 = icmp eq ptr %22, null
  br i1 %23, label %24, label %25

24:                                               ; preds = %17, %10, %1
  store i32 0, ptr %2, align 4
  br label %26

25:                                               ; preds = %17
  store i32 1, ptr %2, align 4
  br label %26

26:                                               ; preds = %25, %24
  %27 = load i32, ptr %2, align 4
  ret i32 %27
}