; Function Attrs: mustprogress nofree norecurse nosync nounwind willreturn memory(read, inaccessiblemem: none) uwtable
define range(i32 0, 2) i32 @SUNMemoryHelper_ImplementsRequiredOps(ptr noundef readonly captures(none) %0) local_unnamed_addr #4 {
  %2 = getelementptr inbounds nuw i8, ptr %0, i64 8
  %3 = load ptr, ptr %2, align 8, !tbaa !10
  %4 = load ptr, ptr %3, align 8, !tbaa !16
  %5 = icmp eq ptr %4, null
  br i1 %5, label %14, label %6

6:                                                ; preds = %1
  %7 = getelementptr inbounds nuw i8, ptr %3, i64 8
  %8 = load ptr, ptr %7, align 8, !tbaa !18
  %9 = icmp eq ptr %8, null
  br i1 %9, label %14, label %10

10:                                               ; preds = %6
  %11 = getelementptr inbounds nuw i8, ptr %3, i64 16
  %12 = load ptr, ptr %11, align 8, !tbaa !19
  %13 = icmp ne ptr %12, null
  %spec.select = zext i1 %13 to i32
  br label %14

14:                                               ; preds = %10, %1, %6
  %.0 = phi i32 [ 0, %6 ], [ 0, %1 ], [ %spec.select, %10 ]
  ret i32 %.0
}